target datalayout = "e-m:e-p270:32:32-p271:32:32-p272:64:64-i64:64-i128:128-f80:128-n8:16:32:64-S128"
target triple = "x86_64-pc-linux-gnu"

%"struct.std::_Rb_tree_header" = type { %"struct.std::_Rb_tree_node_base", i64 }
%"struct.std::_Rb_tree_node_base" = type { i32, ptr, ptr, ptr }
%"class.std::__cxx11::basic_string" = type { %"struct.std::__cxx11::basic_string<char>::_Alloc_hider", i64, %union.anon }
%"struct.std::__cxx11::basic_string<char>::_Alloc_hider" = type { ptr }
%union.anon = type { i64, [8 x i8] }
%"class.std::vector.15" = type { %"struct.std::_Vector_base.16" }
%"struct.std::_Vector_base.16" = type { %"struct.std::_Vector_base<std::__cxx11::basic_string<char>, std::allocator<std::__cxx11::basic_string<char>>>::_Vector_impl" }
%"struct.std::_Vector_base<std::__cxx11::basic_string<char>, std::allocator<std::__cxx11::basic_string<char>>>::_Vector_impl" = type { %"struct.std::_Vector_base<std::__cxx11::basic_string<char>, std::allocator<std::__cxx11::basic_string<char>>>::_Vector_impl_data" }
%"struct.std::_Vector_base<std::__cxx11::basic_string<char>, std::allocator<std::__cxx11::basic_string<char>>>::_Vector_impl_data" = type { ptr, ptr, ptr }
%"class.casadi::Switch" = type <{ %"class.casadi::FunctionInternal", %"class.std::vector.29", %"class.casadi::Function", i8, i8, [6 x i8] }>
%"class.casadi::FunctionInternal" = type { %"class.casadi::ProtoFunction", i8, i8, i64, i64, %"class.std::vector.6", %"class.std::vector.6", %"class.std::vector.10", %"class.std::vector.10", %"class.std::vector.15", %"class.std::vector.15", i8, i8, %"class.std::__cxx11::basic_string", %"class.std::__cxx11::basic_string", %"class.std::__cxx11::basic_string", i8, ptr, ptr, ptr, %"class.std::map", i8, %"class.std::map", %"class.casadi::WeakCache", [2 x %"class.std::vector.10"], %"class.casadi::Function", ptr, %"class.std::__cxx11::basic_string", %"class.casadi::Importer", %"class.std::map", double, i8, i8, i8, i8, i8, i8, i8, i8, double, double, i64, i8, %"class.std::map", double, %"class.std::__cxx11::basic_string", i8, i8, i64, i8, i8, i8, %"class.std::__cxx11::basic_string", %"class.std::__cxx11::basic_string", %"class.std::map", %"class.std::map", %"class.std::map", %"class.std::map", %"class.casadi::Function", i64, i64, i64, i64, i64, i64, i64, i64, i64 }
%"class.casadi::ProtoFunction" = type { %"class.casadi::SharedObjectInternal", %"class.std::__cxx11::basic_string", i8, i8, i8, i8, i8, %"class.std::vector", %"class.std::stack" }
%"class.casadi::SharedObjectInternal" = type { %"class.casadi::GenericSharedInternal", i64 }
%"class.casadi::GenericSharedInternal" = type { ptr, ptr }
%"class.std::vector" = type { %"struct.std::_Vector_base" }
%"struct.std::_Vector_base" = type { %"struct.std::_Vector_base<void *, std::allocator<void *>>::_Vector_impl" }
%"struct.std::_Vector_base<void *, std::allocator<void *>>::_Vector_impl" = type { %"struct.std::_Vector_base<void *, std::allocator<void *>>::_Vector_impl_data" }
%"struct.std::_Vector_base<void *, std::allocator<void *>>::_Vector_impl_data" = type { ptr, ptr, ptr }
%"class.std::stack" = type { %"class.std::deque" }
%"class.std::deque" = type { %"class.std::_Deque_base" }
%"class.std::_Deque_base" = type { %"struct.std::_Deque_base<int, std::allocator<int>>::_Deque_impl" }
%"struct.std::_Deque_base<int, std::allocator<int>>::_Deque_impl" = type { %"struct.std::_Deque_base<int, std::allocator<int>>::_Deque_impl_data" }
%"struct.std::_Deque_base<int, std::allocator<int>>::_Deque_impl_data" = type { ptr, i64, %"struct.std::_Deque_iterator", %"struct.std::_Deque_iterator" }
%"struct.std::_Deque_iterator" = type { ptr, ptr, ptr, ptr }
%"class.std::vector.6" = type { %"struct.std::_Bvector_base" }
%"struct.std::_Bvector_base" = type { %"struct.std::_Bvector_base<std::allocator<bool>>::_Bvector_impl" }
%"struct.std::_Bvector_base<std::allocator<bool>>::_Bvector_impl" = type { %"struct.std::_Bvector_base<std::allocator<bool>>::_Bvector_impl_data" }
%"struct.std::_Bvector_base<std::allocator<bool>>::_Bvector_impl_data" = type { %"struct.std::_Bit_iterator", %"struct.std::_Bit_iterator", ptr }
%"struct.std::_Bit_iterator" = type { %"struct.std::_Bit_iterator_base.base", [4 x i8] }
%"struct.std::_Bit_iterator_base.base" = type <{ ptr, i32 }>
%"class.std::vector.10" = type { %"struct.std::_Vector_base.11" }
%"struct.std::_Vector_base.11" = type { %"struct.std::_Vector_base<casadi::Sparsity, std::allocator<casadi::Sparsity>>::_Vector_impl" }
%"struct.std::_Vector_base<casadi::Sparsity, std::allocator<casadi::Sparsity>>::_Vector_impl" = type { %"struct.std::_Vector_base<casadi::Sparsity, std::allocator<casadi::Sparsity>>::_Vector_impl_data" }
%"struct.std::_Vector_base<casadi::Sparsity, std::allocator<casadi::Sparsity>>::_Vector_impl_data" = type { ptr, ptr, ptr }
%"class.casadi::WeakCache" = type { %"class.std::unordered_map" }
%"class.std::unordered_map" = type { %"class.std::_Hashtable" }
%"class.std::_Hashtable" = type { ptr, i64, %"struct.std::__detail::_Hash_node_base", i64, %"struct.std::__detail::_Prime_rehash_policy", ptr }
%"struct.std::__detail::_Hash_node_base" = type { ptr }
%"struct.std::__detail::_Prime_rehash_policy" = type { float, i64 }
%"class.casadi::Importer" = type { %"class.casadi::SharedObject" }
%"class.casadi::SharedObject" = type { %"class.casadi::GenericShared" }
%"class.casadi::GenericShared" = type { ptr }
%"class.std::map" = type { %"class.std::_Rb_tree" }
%"class.std::_Rb_tree" = type { %"struct.std::_Rb_tree<std::__cxx11::basic_string<char>, std::pair<const std::__cxx11::basic_string<char>, casadi::GenericType>, std::_Select1st<std::pair<const std::__cxx11::basic_string<char>, casadi::GenericType>>, std::less<std::__cxx11::basic_string<char>>>::_Rb_tree_impl" }
%"struct.std::_Rb_tree<std::__cxx11::basic_string<char>, std::pair<const std::__cxx11::basic_string<char>, casadi::GenericType>, std::_Select1st<std::pair<const std::__cxx11::basic_string<char>, casadi::GenericType>>, std::less<std::__cxx11::basic_string<char>>>::_Rb_tree_impl" = type { [8 x i8], %"struct.std::_Rb_tree_header" }
%"class.std::vector.29" = type { %"struct.std::_Vector_base.30" }
%"struct.std::_Vector_base.30" = type { %"struct.std::_Vector_base<casadi::Function, std::allocator<casadi::Function>>::_Vector_impl" }
%"struct.std::_Vector_base<casadi::Function, std::allocator<casadi::Function>>::_Vector_impl" = type { %"struct.std::_Vector_base<casadi::Function, std::allocator<casadi::Function>>::_Vector_impl_data" }
%"struct.std::_Vector_base<casadi::Function, std::allocator<casadi::Function>>::_Vector_impl_data" = type { ptr, ptr, ptr }
%"class.casadi::Function" = type { %"class.casadi::SharedObject" }
%"class.std::locale" = type { ptr }
%"class.std::ios_base" = type { ptr, i64, i64, i32, i32, i32, ptr, %"struct.std::ios_base::_Words", [8 x %"struct.std::ios_base::_Words"], i32, ptr, %"class.std::locale" }
%"struct.std::ios_base::_Words" = type { ptr, i64 }

@.str.16 = private unnamed_addr constant [3 x i8] c", \00", align 1
@.str.17 = private unnamed_addr constant [2 x i8] c"[\00", align 1
@.str.18 = private unnamed_addr constant [4 x i8] c"], \00", align 1

; Function Attrs: inlinehint mustprogress nounwind uwtable
define linkonce_odr noundef i32 @_ZStorSt12_Ios_IostateS_(i32 noundef %0, i32 noundef %1) #8 comdat {
  %3 = alloca i32, align 4
  %4 = alloca i32, align 4
  store i32 %0, ptr %3, align 4, !tbaa !372
  store i32 %1, ptr %4, align 4, !tbaa !372
  %5 = load i32, ptr %3, align 4, !tbaa !372
  %6 = load i32, ptr %4, align 4, !tbaa !372
  %7 = or i32 %5, %6
  ret i32 %7
}

; Function Attrs: mustprogress nounwind uwtable
define available_externally noundef i32 @_ZNKSt9basic_iosIcSt11char_traitsIcEE7rdstateEv(ptr noundef nonnull align 8 dereferenceable(264) %0) #6 align 2 {
  %2 = alloca ptr, align 8
  store ptr %0, ptr %2, align 8, !tbaa !370
  %3 = load ptr, ptr %2, align 8
  %4 = getelementptr inbounds nuw %"class.std::ios_base", ptr %3, i32 0, i32 5
  %5 = load i32, ptr %4, align 8, !tbaa !374
  ret i32 %5
}

; Function Attrs: mustprogress nounwind uwtable
define available_externally noundef ptr @_ZNKSt7__cxx1112basic_stringIcSt11char_traitsIcESaIcEE7_M_dataEv(ptr noundef nonnull align 8 dereferenceable(32) %0) #6 align 2 {
  %2 = alloca ptr, align 8
  store ptr %0, ptr %2, align 8, !tbaa !8
  %3 = load ptr, ptr %2, align 8
  %4 = getelementptr inbounds nuw %"class.std::__cxx11::basic_string", ptr %3, i32 0, i32 0
  %5 = getelementptr inbounds nuw %"struct.std::__cxx11::basic_string<char>::_Alloc_hider", ptr %4, i32 0, i32 0
  %6 = load ptr, ptr %5, align 8, !tbaa !263
  ret ptr %6
}

; Function Attrs: mustprogress nounwind uwtable
define linkonce_odr hidden noundef i64 @_ZNSt11char_traitsIcE6lengthEPKc(ptr noundef %0) #6 comdat align 2 {
  %2 = alloca ptr, align 8
  store ptr %0, ptr %2, align 8, !tbaa !25
  %3 = load ptr, ptr %2, align 8, !tbaa !25
  %4 = call i64 @strlen(ptr noundef %3) #3
  ret i64 %4
}

; Function Attrs: mustprogress uwtable
define available_externally void @_ZNSt9basic_iosIcSt11char_traitsIcEE8setstateESt12_Ios_Iostate(ptr noundef nonnull align 8 dereferenceable(264) %0, i32 noundef %1) #4 align 2 {
  %3 = alloca ptr, align 8
  %4 = alloca i32, align 4
  store ptr %0, ptr %3, align 8, !tbaa !370
  store i32 %1, ptr %4, align 4, !tbaa !372
  %5 = load ptr, ptr %3, align 8
  %6 = call noundef i32 @_ZNKSt9basic_iosIcSt11char_traitsIcEE7rdstateEv(ptr noundef nonnull align 8 dereferenceable(264) %5)
  %7 = load i32, ptr %4, align 4, !tbaa !372
  %8 = call noundef i32 @_ZStorSt12_Ios_IostateS_(i32 noundef %6, i32 noundef %7)
  call void @_ZNSt9basic_iosIcSt11char_traitsIcEE5clearESt12_Ios_Iostate(ptr noundef nonnull align 8 dereferenceable(264) %5, i32 noundef %8)
  ret void
}

; Function Attrs: mustprogress nounwind uwtable
define available_externally noundef i64 @_ZNKSt7__cxx1112basic_stringIcSt11char_traitsIcESaIcEE4sizeEv(ptr noundef nonnull align 8 dereferenceable(32) %0) #6 align 2 {
  %2 = alloca ptr, align 8
  store ptr %0, ptr %2, align 8, !tbaa !8
  %3 = load ptr, ptr %2, align 8
  %4 = getelementptr inbounds nuw %"class.std::__cxx11::basic_string", ptr %3, i32 0, i32 1
  %5 = load i64, ptr %4, align 8, !tbaa !264
  ret i64 %5
}

; Function Attrs: mustprogress nounwind uwtable
define available_externally noundef ptr @_ZNKSt7__cxx1112basic_stringIcSt11char_traitsIcESaIcEE4dataEv(ptr noundef nonnull align 8 dereferenceable(32) %0) #6 align 2 {
  %2 = alloca ptr, align 8
  store ptr %0, ptr %2, align 8, !tbaa !8
  %3 = load ptr, ptr %2, align 8
  %4 = call noundef ptr @_ZNKSt7__cxx1112basic_stringIcSt11char_traitsIcESaIcEE7_M_dataEv(ptr noundef nonnull align 8 dereferenceable(32) %3)
  ret ptr %4
}

; Function Attrs: mustprogress nounwind uwtable
define linkonce_odr hidden noundef nonnull align 8 dereferenceable(8) ptr @_ZNKSt6vectorIN6casadi8FunctionESaIS1_EEixEm(ptr noundef nonnull align 8 dereferenceable(24) %0, i64 noundef %1) #6 comdat align 2 {
  %3 = alloca ptr, align 8
  %4 = alloca i64, align 8
  store ptr %0, ptr %3, align 8, !tbaa !10
  store i64 %1, ptr %4, align 8, !tbaa !23
  %5 = load ptr, ptr %3, align 8
  %6 = getelementptr inbounds nuw %"struct.std::_Vector_base.30", ptr %5, i32 0, i32 0
  %7 = getelementptr inbounds nuw %"struct.std::_Vector_base<casadi::Function, std::allocator<casadi::Function>>::_Vector_impl_data", ptr %6, i32 0, i32 0
  %8 = load ptr, ptr %7, align 8, !tbaa !16
  %9 = load i64, ptr %4, align 8, !tbaa !23
  %10 = getelementptr inbounds nuw %"class.casadi::Function", ptr %8, i64 %9
  ret ptr %10
}

; Function Attrs: inlinehint mustprogress uwtable
define available_externally noundef nonnull align 8 dereferenceable(8) ptr @_ZStlsISt11char_traitsIcEERSt13basic_ostreamIcT_ES5_PKc(ptr noundef nonnull align 8 dereferenceable(8) %0, ptr noundef %1) #5 {
  %3 = alloca ptr, align 8
  %4 = alloca ptr, align 8
  store ptr %0, ptr %3, align 8, !tbaa !185
  store ptr %1, ptr %4, align 8, !tbaa !25
  %5 = load ptr, ptr %4, align 8, !tbaa !25
  %6 = icmp ne ptr %5, null
  br i1 %6, label %13, label %7

7:                                                ; preds = %2
  %8 = load ptr, ptr %3, align 8, !tbaa !185
  %9 = load ptr, ptr %8, align 8, !tbaa !14
  %10 = getelementptr i8, ptr %9, i64 -24
  %11 = load i64, ptr %10, align 8
  %12 = getelementptr inbounds i8, ptr %8, i64 %11
  call void @_ZNSt9basic_iosIcSt11char_traitsIcEE8setstateESt12_Ios_Iostate(ptr noundef nonnull align 8 dereferenceable(264) %12, i32 noundef 1)
  br label %19

13:                                               ; preds = %2
  %14 = load ptr, ptr %3, align 8, !tbaa !185
  %15 = load ptr, ptr %4, align 8, !tbaa !25
  %16 = load ptr, ptr %4, align 8, !tbaa !25
  %17 = call noundef i64 @_ZNSt11char_traitsIcE6lengthEPKc(ptr noundef %16)
  %18 = call noundef nonnull align 8 dereferenceable(8) ptr @_ZSt16__ostream_insertIcSt11char_traitsIcEERSt13basic_ostreamIT_T0_ES6_PKS3_l(ptr noundef nonnull align 8 dereferenceable(8) %14, ptr noundef %15, i64 noundef %17)
  br label %19

19:                                               ; preds = %13, %7
  %20 = load ptr, ptr %3, align 8, !tbaa !185
  ret ptr %20
}

; Function Attrs: inlinehint mustprogress uwtable
define available_externally noundef nonnull align 8 dereferenceable(8) ptr @_ZStlsIcSt11char_traitsIcESaIcEERSt13basic_ostreamIT_T0_ES7_RKNSt7__cxx1112basic_stringIS4_S5_T1_EE(ptr noundef nonnull align 8 dereferenceable(8) %0, ptr noundef nonnull align 8 dereferenceable(32) %1) #5 {
  %3 = alloca ptr, align 8
  %4 = alloca ptr, align 8
  store ptr %0, ptr %3, align 8, !tbaa !185
  store ptr %1, ptr %4, align 8, !tbaa !8
  %5 = load ptr, ptr %3, align 8, !tbaa !185
  %6 = load ptr, ptr %4, align 8, !tbaa !8
  %7 = call noundef ptr @_ZNKSt7__cxx1112basic_stringIcSt11char_traitsIcESaIcEE4dataEv(ptr noundef nonnull align 8 dereferenceable(32) %6) #3
  %8 = load ptr, ptr %4, align 8, !tbaa !8
  %9 = call noundef i64 @_ZNKSt7__cxx1112basic_stringIcSt11char_traitsIcESaIcEE4sizeEv(ptr noundef nonnull align 8 dereferenceable(32) %8) #3
  %10 = call noundef nonnull align 8 dereferenceable(8) ptr @_ZSt16__ostream_insertIcSt11char_traitsIcEERSt13basic_ostreamIT_T0_ES6_PKS3_l(ptr noundef nonnull align 8 dereferenceable(8) %5, ptr noundef %7, i64 noundef %9)
  ret ptr %10
}

; Function Attrs: mustprogress nounwind uwtable
define linkonce_odr hidden noundef i64 @_ZNKSt6vectorIN6casadi8FunctionESaIS1_EE4sizeEv(ptr noundef nonnull align 8 dereferenceable(24) %0) #6 comdat align 2 {
  %2 = alloca ptr, align 8
  store ptr %0, ptr %2, align 8, !tbaa !10
  %3 = load ptr, ptr %2, align 8
  %4 = getelementptr inbounds nuw %"struct.std::_Vector_base.30", ptr %3, i32 0, i32 0
  %5 = getelementptr inbounds nuw %"struct.std::_Vector_base<casadi::Function, std::allocator<casadi::Function>>::_Vector_impl_data", ptr %4, i32 0, i32 1
  %6 = load ptr, ptr %5, align 8, !tbaa !18
  %7 = getelementptr inbounds nuw %"struct.std::_Vector_base.30", ptr %3, i32 0, i32 0
  %8 = getelementptr inbounds nuw %"struct.std::_Vector_base<casadi::Function, std::allocator<casadi::Function>>::_Vector_impl_data", ptr %7, i32 0, i32 0
  %9 = load ptr, ptr %8, align 8, !tbaa !16
  %10 = ptrtoint ptr %6 to i64
  %11 = ptrtoint ptr %9 to i64
  %12 = sub i64 %10, %11
  %13 = sdiv exact i64 %12, 8
  ret i64 %13
}

; Function Attrs: mustprogress uwtable
define void @_ZNK6casadi6Switch9disp_moreERSo(ptr noundef nonnull align 8 dereferenceable(1346) %0, ptr noundef nonnull align 8 dereferenceable(8) %1) unnamed_addr #4 align 2 {
  %3 = alloca ptr, align 8
  %4 = alloca ptr, align 8
  %5 = alloca i64, align 8
  store ptr %0, ptr %3, align 8, !tbaa !3
  store ptr %1, ptr %4, align 8, !tbaa !185
  %6 = load ptr, ptr %3, align 8
  %7 = getelementptr inbounds nuw %"class.casadi::Switch", ptr %6, i32 0, i32 1
  %8 = call noundef i64 @_ZNKSt6vectorIN6casadi8FunctionESaIS1_EE4sizeEv(ptr noundef nonnull align 8 dereferenceable(24) %7) #3
  %9 = icmp eq i64 %8, 1
  br i1 %9, label %10, label %20

10:                                               ; preds = %2
  %11 = load ptr, ptr %4, align 8, !tbaa !185
  %12 = getelementptr inbounds nuw %"class.casadi::Switch", ptr %6, i32 0, i32 2
  %13 = call noundef nonnull align 8 dereferenceable(32) ptr @_ZNK6casadi8Function4nameB5cxx11Ev(ptr noundef nonnull align 8 dereferenceable(8) %12)
  %14 = call noundef nonnull align 8 dereferenceable(8) ptr @_ZStlsIcSt11char_traitsIcESaIcEERSt13basic_ostreamIT_T0_ES7_RKNSt7__cxx1112basic_stringIS4_S5_T1_EE(ptr noundef nonnull align 8 dereferenceable(8) %11, ptr noundef nonnull align 8 dereferenceable(32) %13)
  %15 = call noundef nonnull align 8 dereferenceable(8) ptr @_ZStlsISt11char_traitsIcEERSt13basic_ostreamIcT_ES5_PKc(ptr noundef nonnull align 8 dereferenceable(8) %14, ptr noundef @.str.16)
  %16 = getelementptr inbounds nuw %"class.casadi::Switch", ptr %6, i32 0, i32 1
  %17 = call noundef nonnull align 8 dereferenceable(8) ptr @_ZNKSt6vectorIN6casadi8FunctionESaIS1_EEixEm(ptr noundef nonnull align 8 dereferenceable(24) %16, i64 noundef 0) #3
  %18 = call noundef nonnull align 8 dereferenceable(32) ptr @_ZNK6casadi8Function4nameB5cxx11Ev(ptr noundef nonnull align 8 dereferenceable(8) %17)
  %19 = call noundef nonnull align 8 dereferenceable(8) ptr @_ZStlsIcSt11char_traitsIcESaIcEERSt13basic_ostreamIT_T0_ES7_RKNSt7__cxx1112basic_stringIS4_S5_T1_EE(ptr noundef nonnull align 8 dereferenceable(8) %15, ptr noundef nonnull align 8 dereferenceable(32) %18)
  br label %51

20:                                               ; preds = %2
  %21 = load ptr, ptr %4, align 8, !tbaa !185
  %22 = call noundef nonnull align 8 dereferenceable(8) ptr @_ZStlsISt11char_traitsIcEERSt13basic_ostreamIcT_ES5_PKc(ptr noundef nonnull align 8 dereferenceable(8) %21, ptr noundef @.str.17)
  call void @llvm.lifetime.start.p0(i64 8, ptr %5) #3
  store i64 0, ptr %5, align 8, !tbaa !68
  br label %23

23:                                               ; preds = %42, %20
  %24 = load i64, ptr %5, align 8, !tbaa !68
  %25 = getelementptr inbounds nuw %"class.casadi::Switch", ptr %6, i32 0, i32 1
  %26 = call noundef i64 @_ZNKSt6vectorIN6casadi8FunctionESaIS1_EE4sizeEv(ptr noundef nonnull align 8 dereferenceable(24) %25) #3
  %27 = icmp ult i64 %24, %26
  br i1 %27, label %29, label %28

28:                                               ; preds = %23
  call void @llvm.lifetime.end.p0(i64 8, ptr %5) #3
  br label %45

29:                                               ; preds = %23
  %30 = load i64, ptr %5, align 8, !tbaa !68
  %31 = icmp ne i64 %30, 0
  br i1 %31, label %32, label %35

32:                                               ; preds = %29
  %33 = load ptr, ptr %4, align 8, !tbaa !185
  %34 = call noundef nonnull align 8 dereferenceable(8) ptr @_ZStlsISt11char_traitsIcEERSt13basic_ostreamIcT_ES5_PKc(ptr noundef nonnull align 8 dereferenceable(8) %33, ptr noundef @.str.16)
  br label %35

35:                                               ; preds = %32, %29
  %36 = load ptr, ptr %4, align 8, !tbaa !185
  %37 = getelementptr inbounds nuw %"class.casadi::Switch", ptr %6, i32 0, i32 1
  %38 = load i64, ptr %5, align 8, !tbaa !68
  %39 = call noundef nonnull align 8 dereferenceable(8) ptr @_ZNKSt6vectorIN6casadi8FunctionESaIS1_EEixEm(ptr noundef nonnull align 8 dereferenceable(24) %37, i64 noundef %38) #3
  %40 = call noundef nonnull align 8 dereferenceable(32) ptr @_ZNK6casadi8Function4nameB5cxx11Ev(ptr noundef nonnull align 8 dereferenceable(8) %39)
  %41 = call noundef nonnull align 8 dereferenceable(8) ptr @_ZStlsIcSt11char_traitsIcESaIcEERSt13basic_ostreamIT_T0_ES7_RKNSt7__cxx1112basic_stringIS4_S5_T1_EE(ptr noundef nonnull align 8 dereferenceable(8) %36, ptr noundef nonnull align 8 dereferenceable(32) %40)
  br label %42

42:                                               ; preds = %35
  %43 = load i64, ptr %5, align 8, !tbaa !68
  %44 = add nsw i64 %43, 1
  store i64 %44, ptr %5, align 8, !tbaa !68
  br label %23, !llvm.loop !186

45:                                               ; preds = %28
  %46 = load ptr, ptr %4, align 8, !tbaa !185
  %47 = call noundef nonnull align 8 dereferenceable(8) ptr @_ZStlsISt11char_traitsIcEERSt13basic_ostreamIcT_ES5_PKc(ptr noundef nonnull align 8 dereferenceable(8) %46, ptr noundef @.str.18)
  %48 = getelementptr inbounds nuw %"class.casadi::Switch", ptr %6, i32 0, i32 2
  %49 = call noundef nonnull align 8 dereferenceable(32) ptr @_ZNK6casadi8Function4nameB5cxx11Ev(ptr noundef nonnull align 8 dereferenceable(8) %48)
  %50 = call noundef nonnull align 8 dereferenceable(8) ptr @_ZStlsIcSt11char_traitsIcESaIcEERSt13basic_ostreamIT_T0_ES7_RKNSt7__cxx1112basic_stringIS4_S5_T1_EE(ptr noundef nonnull align 8 dereferenceable(8) %47, ptr noundef nonnull align 8 dereferenceable(32) %49)
  br label %51

51:                                               ; preds = %45, %10
  ret void
}