; Function Attrs: mustprogress uwtable
define void @_ZNK6casadi6Switch9disp_moreERSo(ptr noundef nonnull align 8 dereferenceable(1346) %0, ptr noundef nonnull align 8 dereferenceable(8) %1) unnamed_addr #3 align 2 {
  %3 = getelementptr inbounds nuw i8, ptr %0, i64 1312
  %4 = getelementptr inbounds nuw i8, ptr %0, i64 1320
  %5 = load ptr, ptr %4, align 8, !tbaa !23
  %6 = load ptr, ptr %3, align 8, !tbaa !25
  %7 = ptrtoint ptr %5 to i64
  %8 = ptrtoint ptr %6 to i64
  %9 = sub i64 %7, %8
  %10 = icmp eq i64 %9, 8
  br i1 %10, label %11, label %20

11:                                               ; preds = %2
  %12 = getelementptr inbounds nuw i8, ptr %0, i64 1336
  %13 = tail call noundef nonnull align 8 dereferenceable(32) ptr @_ZNK6casadi8Function4nameB5cxx11Ev(ptr noundef nonnull align 8 dereferenceable(8) %12)
  %14 = load ptr, ptr %13, align 8, !tbaa !16
  %15 = getelementptr inbounds nuw i8, ptr %13, i64 8
  %16 = load i64, ptr %15, align 8, !tbaa !21
  %17 = tail call noundef nonnull align 8 dereferenceable(8) ptr @_ZSt16__ostream_insertIcSt11char_traitsIcEERSt13basic_ostreamIT_T0_ES6_PKS3_l(ptr noundef nonnull align 8 dereferenceable(8) %1, ptr noundef %14, i64 noundef %16)
  %18 = tail call noundef nonnull align 8 dereferenceable(8) ptr @_ZSt16__ostream_insertIcSt11char_traitsIcEERSt13basic_ostreamIT_T0_ES6_PKS3_l(ptr noundef nonnull align 8 dereferenceable(8) %17, ptr noundef nonnull @.str.16, i64 noundef 2)
  %19 = load ptr, ptr %3, align 8, !tbaa !25
  br label %43

20:                                               ; preds = %2
  %21 = tail call noundef nonnull align 8 dereferenceable(8) ptr @_ZSt16__ostream_insertIcSt11char_traitsIcEERSt13basic_ostreamIT_T0_ES6_PKS3_l(ptr noundef nonnull align 8 dereferenceable(8) %1, ptr noundef nonnull @.str.17, i64 noundef 1)
  %22 = load ptr, ptr %4, align 8, !tbaa !23
  %23 = load ptr, ptr %3, align 8, !tbaa !25
  %.not12 = icmp eq ptr %22, %23
  br i1 %.not12, label %._crit_edge, label %.lr.ph

._crit_edge:                                      ; preds = %.split, %20
  %24 = tail call noundef nonnull align 8 dereferenceable(8) ptr @_ZSt16__ostream_insertIcSt11char_traitsIcEERSt13basic_ostreamIT_T0_ES6_PKS3_l(ptr noundef nonnull align 8 dereferenceable(8) %1, ptr noundef nonnull @.str.18, i64 noundef 3)
  %25 = getelementptr inbounds nuw i8, ptr %0, i64 1336
  br label %43

.lr.ph:                                           ; preds = %20, %.split
  %26 = phi ptr [ %37, %.split ], [ %23, %20 ]
  %.011 = phi i64 [ %35, %.split ], [ 0, %20 ]
  %.not = icmp eq i64 %.011, 0
  br i1 %.not, label %.split, label %.split10

.split10:                                         ; preds = %.lr.ph
  %27 = tail call noundef nonnull align 8 dereferenceable(8) ptr @_ZSt16__ostream_insertIcSt11char_traitsIcEERSt13basic_ostreamIT_T0_ES6_PKS3_l(ptr noundef nonnull align 8 dereferenceable(8) %1, ptr noundef nonnull @.str.16, i64 noundef 2)
  %28 = load ptr, ptr %3, align 8, !tbaa !25
  %29 = getelementptr inbounds nuw %"class.casadi::Function", ptr %28, i64 %.011
  br label %.split

.split:                                           ; preds = %.lr.ph, %.split10
  %phi.call = phi ptr [ %29, %.split10 ], [ %26, %.lr.ph ]
  %30 = tail call noundef nonnull align 8 dereferenceable(32) ptr @_ZNK6casadi8Function4nameB5cxx11Ev(ptr noundef nonnull align 8 dereferenceable(8) %phi.call)
  %31 = load ptr, ptr %30, align 8, !tbaa !16
  %32 = getelementptr inbounds nuw i8, ptr %30, i64 8
  %33 = load i64, ptr %32, align 8, !tbaa !21
  %34 = tail call noundef nonnull align 8 dereferenceable(8) ptr @_ZSt16__ostream_insertIcSt11char_traitsIcEERSt13basic_ostreamIT_T0_ES6_PKS3_l(ptr noundef nonnull align 8 dereferenceable(8) %1, ptr noundef %31, i64 noundef %33)
  %35 = add nuw nsw i64 %.011, 1
  %36 = load ptr, ptr %4, align 8, !tbaa !23
  %37 = load ptr, ptr %3, align 8, !tbaa !25
  %38 = ptrtoint ptr %36 to i64
  %39 = ptrtoint ptr %37 to i64
  %40 = sub i64 %38, %39
  %41 = ashr exact i64 %40, 3
  %42 = icmp ult i64 %35, %41
  br i1 %42, label %.lr.ph, label %._crit_edge, !llvm.loop !184

43:                                               ; preds = %._crit_edge, %11
  %.sink18 = phi ptr [ %25, %._crit_edge ], [ %19, %11 ]
  %.sink = phi ptr [ %1, %._crit_edge ], [ %17, %11 ]
  %44 = tail call noundef nonnull align 8 dereferenceable(32) ptr @_ZNK6casadi8Function4nameB5cxx11Ev(ptr noundef nonnull align 8 dereferenceable(8) %.sink18)
  %45 = load ptr, ptr %44, align 8, !tbaa !16
  %46 = getelementptr inbounds nuw i8, ptr %44, i64 8
  %47 = load i64, ptr %46, align 8, !tbaa !21
  %48 = tail call noundef nonnull align 8 dereferenceable(8) ptr @_ZSt16__ostream_insertIcSt11char_traitsIcEERSt13basic_ostreamIT_T0_ES6_PKS3_l(ptr noundef nonnull align 8 dereferenceable(8) %.sink, ptr noundef %45, i64 noundef %47)
  ret void
}